target datalayout = "e-m:e-p270:32:32-p271:32:32-p272:64:64-i64:64-i128:128-f80:128-n8:16:32:64-S128"
target triple = "x86_64-pc-linux-gnu"

%struct.IDAMemRec = type { double, ptr, ptr, i32, double, double, ptr, i32, ptr, ptr, i32, ptr, ptr, i32, i32, double, double, ptr, i32, i32, i32, ptr, ptr, i32, ptr, ptr, ptr, i32, double, i32, i32, double, ptr, ptr, i32, ptr, ptr, i32, i32, i32, double, ptr, ptr, [6 x ptr], [6 x double], [6 x double], [6 x double], [6 x double], [6 x double], ptr, ptr, ptr, ptr, ptr, ptr, ptr, ptr, ptr, ptr, ptr, ptr, ptr, ptr, ptr, [6 x ptr], ptr, ptr, ptr, ptr, [6 x ptr], ptr, ptr, ptr, ptr, ptr, ptr, ptr, ptr, ptr, ptr, ptr, ptr, ptr, ptr, [6 x ptr], ptr, ptr, ptr, ptr, ptr, double, ptr, ptr, i32, i32, i32, i32, i32, i32, i32, double, double, double, i32, double, i32, i32, i32, i32, double, double, double, double, double, double, double, double, double, double, double, double, double, double, i32, i32, i32, i32, i32, i64, double, i32, i64, i64, i64, i64, i64, i64, i64, i64, i64, i64, i64, i64, i64, i64, i64, i64, i64, i64, i64, i64, i64, i64, i64, i64, ptr, ptr, ptr, i32, i32, i32, i32, i32, i32, i32, i32, i32, i32, i32, i32, i32, ptr, ptr, ptr, ptr, ptr, ptr, i32, i32, i32, i32, i32, i32, double, double, double, ptr, i32, ptr, ptr, double, double, double, ptr, ptr, ptr, double, double, i32, i32, i64, ptr, i32, i32, ptr, i32 }
%struct.IDAadjMemRec = type { double, double, i32, i32, double, ptr, i32, ptr, i32, ptr, ptr, i32, i64, ptr, i64, i32, ptr, ptr, ptr, ptr, i32, i32, i32, i32, i32, [6 x ptr], [6 x ptr], [6 x double], ptr, ptr, ptr, ptr, i64 }
%struct.IDABMemRec = type { i32, double, ptr, i32, i32, ptr, ptr, ptr, ptr, ptr, ptr, ptr, ptr, ptr, double, ptr, ptr, ptr }
%struct.IDADlsMemRecB = type { i32, ptr, ptr, ptr, ptr }

@.str = private unnamed_addr constant [8 x i8] c"IDASDLS\00", align 1
@.str.25 = private unnamed_addr constant [23 x i8] c"idaDlsDenseJacBWrapper\00", align 1
@.str.26 = private unnamed_addr constant [25 x i8] c"Bad t for interpolation.\00", align 1

; Function Attrs: nounwind uwtable
define internal i32 @idaDlsDenseJacBWrapper(i64 noundef %0, double noundef %1, double noundef %2, ptr noundef %3, ptr noundef %4, ptr noundef %5, ptr noundef %6, ptr noundef %7, ptr noundef %8, ptr noundef %9, ptr noundef %10) #0 {
  %12 = alloca i32, align 4
  %13 = alloca i64, align 8
  %14 = alloca double, align 8
  %15 = alloca double, align 8
  %16 = alloca ptr, align 8
  %17 = alloca ptr, align 8
  %18 = alloca ptr, align 8
  %19 = alloca ptr, align 8
  %20 = alloca ptr, align 8
  %21 = alloca ptr, align 8
  %22 = alloca ptr, align 8
  %23 = alloca ptr, align 8
  %24 = alloca ptr, align 8
  %25 = alloca ptr, align 8
  %26 = alloca ptr, align 8
  %27 = alloca ptr, align 8
  %28 = alloca i32, align 4
  %29 = alloca i32, align 4
  store i64 %0, ptr %13, align 8, !tbaa !31
  store double %1, ptr %14, align 8, !tbaa !39
  store double %2, ptr %15, align 8, !tbaa !39
  store ptr %3, ptr %16, align 8, !tbaa !40
  store ptr %4, ptr %17, align 8, !tbaa !40
  store ptr %5, ptr %18, align 8, !tbaa !40
  store ptr %6, ptr %19, align 8, !tbaa !41
  store ptr %7, ptr %20, align 8, !tbaa !3
  store ptr %8, ptr %21, align 8, !tbaa !40
  store ptr %9, ptr %22, align 8, !tbaa !40
  store ptr %10, ptr %23, align 8, !tbaa !40
  call void @llvm.lifetime.start.p0(i64 8, ptr %24) #6
  call void @llvm.lifetime.start.p0(i64 8, ptr %25) #6
  call void @llvm.lifetime.start.p0(i64 8, ptr %26) #6
  call void @llvm.lifetime.start.p0(i64 8, ptr %27) #6
  call void @llvm.lifetime.start.p0(i64 4, ptr %28) #6
  %30 = load ptr, ptr %20, align 8, !tbaa !3
  store ptr %30, ptr %25, align 8, !tbaa !7
  %31 = load ptr, ptr %25, align 8, !tbaa !7
  %32 = getelementptr inbounds nuw %struct.IDAMemRec, ptr %31, i32 0, i32 204
  %33 = load ptr, ptr %32, align 8, !tbaa !62
  store ptr %33, ptr %24, align 8, !tbaa !63
  %34 = load ptr, ptr %24, align 8, !tbaa !63
  %35 = getelementptr inbounds nuw %struct.IDAadjMemRec, ptr %34, i32 0, i32 7
  %36 = load ptr, ptr %35, align 8, !tbaa !81
  store ptr %36, ptr %26, align 8, !tbaa !70
  %37 = load ptr, ptr %26, align 8, !tbaa !70
  %38 = getelementptr inbounds nuw %struct.IDABMemRec, ptr %37, i32 0, i32 10
  %39 = load ptr, ptr %38, align 8, !tbaa !76
  store ptr %39, ptr %27, align 8, !tbaa !77
  %40 = load ptr, ptr %24, align 8, !tbaa !63
  %41 = getelementptr inbounds nuw %struct.IDAadjMemRec, ptr %40, i32 0, i32 24
  %42 = load i32, ptr %41, align 8, !tbaa !82
  %43 = icmp eq i32 %42, 0
  br i1 %43, label %44, label %64

44:                                               ; preds = %11
  %45 = load ptr, ptr %24, align 8, !tbaa !63
  %46 = getelementptr inbounds nuw %struct.IDAadjMemRec, ptr %45, i32 0, i32 17
  %47 = load ptr, ptr %46, align 8, !tbaa !83
  %48 = load ptr, ptr %25, align 8, !tbaa !7
  %49 = load double, ptr %14, align 8, !tbaa !39
  %50 = load ptr, ptr %24, align 8, !tbaa !63
  %51 = getelementptr inbounds nuw %struct.IDAadjMemRec, ptr %50, i32 0, i32 28
  %52 = load ptr, ptr %51, align 8, !tbaa !84
  %53 = load ptr, ptr %24, align 8, !tbaa !63
  %54 = getelementptr inbounds nuw %struct.IDAadjMemRec, ptr %53, i32 0, i32 29
  %55 = load ptr, ptr %54, align 8, !tbaa !85
  %56 = call i32 %47(ptr noundef %48, double noundef %49, ptr noundef %52, ptr noundef %55, ptr noundef null, ptr noundef null)
  store i32 %56, ptr %28, align 4, !tbaa !43
  %57 = load i32, ptr %28, align 4, !tbaa !43
  %58 = icmp ne i32 %57, 0
  br i1 %58, label %59, label %63

59:                                               ; preds = %44
  %60 = load ptr, ptr %26, align 8, !tbaa !70
  %61 = getelementptr inbounds nuw %struct.IDABMemRec, ptr %60, i32 0, i32 2
  %62 = load ptr, ptr %61, align 8, !tbaa !75
  call void (ptr, i32, ptr, ptr, ptr, ...) @IDAProcessError(ptr noundef %62, i32 noundef -1, ptr noundef @.str, ptr noundef @.str.25, ptr noundef @.str.26)
  store i32 -1, ptr %12, align 4
  store i32 1, ptr %29, align 4
  br label %89

63:                                               ; preds = %44
  br label %64

64:                                               ; preds = %63, %11
  %65 = load ptr, ptr %27, align 8, !tbaa !77
  %66 = getelementptr inbounds nuw %struct.IDADlsMemRecB, ptr %65, i32 0, i32 1
  %67 = load ptr, ptr %66, align 8, !tbaa !79
  %68 = load i64, ptr %13, align 8, !tbaa !31
  %69 = load double, ptr %14, align 8, !tbaa !39
  %70 = load double, ptr %15, align 8, !tbaa !39
  %71 = load ptr, ptr %24, align 8, !tbaa !63
  %72 = getelementptr inbounds nuw %struct.IDAadjMemRec, ptr %71, i32 0, i32 28
  %73 = load ptr, ptr %72, align 8, !tbaa !84
  %74 = load ptr, ptr %24, align 8, !tbaa !63
  %75 = getelementptr inbounds nuw %struct.IDAadjMemRec, ptr %74, i32 0, i32 29
  %76 = load ptr, ptr %75, align 8, !tbaa !85
  %77 = load ptr, ptr %16, align 8, !tbaa !40
  %78 = load ptr, ptr %17, align 8, !tbaa !40
  %79 = load ptr, ptr %18, align 8, !tbaa !40
  %80 = load ptr, ptr %19, align 8, !tbaa !41
  %81 = load ptr, ptr %26, align 8, !tbaa !70
  %82 = getelementptr inbounds nuw %struct.IDABMemRec, ptr %81, i32 0, i32 9
  %83 = load ptr, ptr %82, align 8, !tbaa !86
  %84 = load ptr, ptr %21, align 8, !tbaa !40
  %85 = load ptr, ptr %22, align 8, !tbaa !40
  %86 = load ptr, ptr %23, align 8, !tbaa !40
  %87 = call i32 %67(i64 noundef %68, double noundef %69, double noundef %70, ptr noundef %73, ptr noundef %76, ptr noundef %77, ptr noundef %78, ptr noundef %79, ptr noundef %80, ptr noundef %83, ptr noundef %84, ptr noundef %85, ptr noundef %86)
  store i32 %87, ptr %28, align 4, !tbaa !43
  %88 = load i32, ptr %28, align 4, !tbaa !43
  store i32 %88, ptr %12, align 4
  store i32 1, ptr %29, align 4
  br label %89

89:                                               ; preds = %64, %59
  call void @llvm.lifetime.end.p0(i64 4, ptr %28) #6
  call void @llvm.lifetime.end.p0(i64 8, ptr %27) #6
  call void @llvm.lifetime.end.p0(i64 8, ptr %26) #6
  call void @llvm.lifetime.end.p0(i64 8, ptr %25) #6
  call void @llvm.lifetime.end.p0(i64 8, ptr %24) #6
  %90 = load i32, ptr %12, align 4
  ret i32 %90
}