; Function Attrs: nounwind uwtable
define internal i32 @idaDlsDenseJacBWrapper(i64 noundef %0, double noundef %1, double noundef %2, ptr noundef %3, ptr noundef %4, ptr noundef %5, ptr noundef %6, ptr noundef %7, ptr noundef %8, ptr noundef %9, ptr noundef %10) #0 {
  %12 = getelementptr inbounds nuw i8, ptr %7, i64 1816
  %13 = load ptr, ptr %12, align 8, !tbaa !51
  %14 = getelementptr inbounds nuw i8, ptr %13, i64 48
  %15 = load ptr, ptr %14, align 8, !tbaa !66
  %16 = getelementptr inbounds nuw i8, ptr %15, i64 72
  %17 = load ptr, ptr %16, align 8, !tbaa !63
  %18 = getelementptr inbounds nuw i8, ptr %13, i64 168
  %19 = load i32, ptr %18, align 8, !tbaa !67
  %20 = icmp eq i32 %19, 0
  br i1 %20, label %21, label %32

21:                                               ; preds = %11
  %22 = getelementptr inbounds nuw i8, ptr %13, i64 128
  %23 = load ptr, ptr %22, align 8, !tbaa !68
  %24 = getelementptr inbounds nuw i8, ptr %13, i64 320
  %25 = load ptr, ptr %24, align 8, !tbaa !69
  %26 = getelementptr inbounds nuw i8, ptr %13, i64 328
  %27 = load ptr, ptr %26, align 8, !tbaa !70
  %28 = tail call i32 %23(ptr noundef nonnull %7, double noundef %1, ptr noundef %25, ptr noundef %27, ptr noundef null, ptr noundef null) #7
  %.not = icmp eq i32 %28, 0
  br i1 %.not, label %32, label %29

29:                                               ; preds = %21
  %30 = getelementptr inbounds nuw i8, ptr %15, i64 16
  %31 = load ptr, ptr %30, align 8, !tbaa !62
  tail call void (ptr, i32, ptr, ptr, ptr, ...) @IDAProcessError(ptr noundef %31, i32 noundef -1, ptr noundef nonnull @.str, ptr noundef nonnull @.str.25, ptr noundef nonnull @.str.26) #7
  br label %42

32:                                               ; preds = %21, %11
  %33 = getelementptr inbounds nuw i8, ptr %17, i64 8
  %34 = load ptr, ptr %33, align 8, !tbaa !64
  %35 = getelementptr inbounds nuw i8, ptr %13, i64 320
  %36 = load ptr, ptr %35, align 8, !tbaa !69
  %37 = getelementptr inbounds nuw i8, ptr %13, i64 328
  %38 = load ptr, ptr %37, align 8, !tbaa !70
  %39 = getelementptr inbounds nuw i8, ptr %15, i64 64
  %40 = load ptr, ptr %39, align 8, !tbaa !71
  %41 = tail call i32 %34(i64 noundef %0, double noundef %1, double noundef %2, ptr noundef %36, ptr noundef %38, ptr noundef %3, ptr noundef %4, ptr noundef %5, ptr noundef %6, ptr noundef %40, ptr noundef %8, ptr noundef %9, ptr noundef %10) #7
  br label %42

42:                                               ; preds = %32, %29
  %.0 = phi i32 [ -1, %29 ], [ %41, %32 ]
  ret i32 %.0
}